target datalayout = "e-m:e-p270:32:32-p271:32:32-p272:64:64-i64:64-i128:128-f80:128-n8:16:32:64-S128"
target triple = "x86_64-pc-linux-gnu"

%"class.std::_Hashtable" = type { ptr, i64, %"struct.std::__detail::_Hash_node_base", i64, %"struct.std::__detail::_Prime_rehash_policy", ptr }
%"struct.std::__detail::_Hash_node_base" = type { ptr }
%"struct.std::__detail::_Prime_rehash_policy" = type { float, i64 }

; Function Attrs: mustprogress nounwind optsize uwtable
define internal noundef ptr @_ZNKSt8__detail10_Hash_nodeISt4pairIKNSt7__cxx1112basic_stringIcSt11char_traitsIcESaIcEEESt10shared_ptrIZL28nanobind_init_test_issue_extRN8nanobind7module_EE5ParamEELb1EE7_M_nextEv(ptr noundef nonnull align 8 dereferenceable(64) %0) #8 align 2 {
  %2 = alloca ptr, align 8
  store ptr %0, ptr %2, align 8, !tbaa !115
  %3 = load ptr, ptr %2, align 8
  %4 = getelementptr inbounds nuw %"struct.std::__detail::_Hash_node_base", ptr %3, i32 0, i32 0
  %5 = load ptr, ptr %4, align 8, !tbaa !110
  ret ptr %5
}

; Function Attrs: noinline noreturn nounwind optsize uwtable
define linkonce_odr hidden void @__clang_call_terminate(ptr noundef %0) #7 comdat {
  %2 = call ptr @__cxa_begin_catch(ptr %0) #20
  call void @_ZSt9terminatev() #22
  unreachable
}

; Function Attrs: mustprogress optsize uwtable
define internal void @_ZNSt8__detail16_Hashtable_allocISaINS_10_Hash_nodeISt4pairIKNSt7__cxx1112basic_stringIcSt11char_traitsIcESaIcEEESt10shared_ptrIZL28nanobind_init_test_issue_extRN8nanobind7module_EE5ParamEELb1EEEEE19_M_deallocate_nodesEPSH_(ptr noundef nonnull align 1 dereferenceable(1) %0, ptr noundef %1) #0 align 2 {
  %3 = alloca ptr, align 8
  %4 = alloca ptr, align 8
  %5 = alloca ptr, align 8
  store ptr %0, ptr %3, align 8, !tbaa !107
  store ptr %1, ptr %4, align 8, !tbaa !115
  %6 = load ptr, ptr %3, align 8
  br label %7

7:                                                ; preds = %10, %2
  %8 = load ptr, ptr %4, align 8, !tbaa !115
  %9 = icmp ne ptr %8, null
  br i1 %9, label %10, label %15

10:                                               ; preds = %7
  call void @llvm.lifetime.start.p0(i64 8, ptr %5) #20
  %11 = load ptr, ptr %4, align 8, !tbaa !115
  store ptr %11, ptr %5, align 8, !tbaa !115
  %12 = load ptr, ptr %4, align 8, !tbaa !115
  %13 = call noundef ptr @_ZNKSt8__detail10_Hash_nodeISt4pairIKNSt7__cxx1112basic_stringIcSt11char_traitsIcESaIcEEESt10shared_ptrIZL28nanobind_init_test_issue_extRN8nanobind7module_EE5ParamEELb1EE7_M_nextEv(ptr noundef nonnull align 8 dereferenceable(64) %12) #21
  store ptr %13, ptr %4, align 8, !tbaa !115
  %14 = load ptr, ptr %5, align 8, !tbaa !115
  call void @_ZNSt8__detail16_Hashtable_allocISaINS_10_Hash_nodeISt4pairIKNSt7__cxx1112basic_stringIcSt11char_traitsIcESaIcEEESt10shared_ptrIZL28nanobind_init_test_issue_extRN8nanobind7module_EE5ParamEELb1EEEEE18_M_deallocate_nodeEPSH_(ptr noundef nonnull align 1 dereferenceable(1) %6, ptr noundef %14) #19
  call void @llvm.lifetime.end.p0(i64 8, ptr %5) #20
  br label %7, !llvm.loop !175

15:                                               ; preds = %7
  ret void
}

; Function Attrs: mustprogress nounwind optsize uwtable
define internal noundef ptr @_ZNKSt10_HashtableINSt7__cxx1112basic_stringIcSt11char_traitsIcESaIcEEESt4pairIKS5_St10shared_ptrIZL28nanobind_init_test_issue_extRN8nanobind7module_EE5ParamEESaISE_ENSt8__detail10_Select1stESt8equal_toIS5_ESt4hashIS5_ENSG_18_Mod_range_hashingENSG_20_Default_ranged_hashENSG_20_Prime_rehash_policyENSG_17_Hashtable_traitsILb1ELb0ELb1EEEE8_M_beginEv(ptr noundef nonnull align 8 dereferenceable(56) %0) #8 align 2 {
  %2 = alloca ptr, align 8
  store ptr %0, ptr %2, align 8, !tbaa !90
  %3 = load ptr, ptr %2, align 8
  %4 = getelementptr inbounds nuw %"class.std::_Hashtable", ptr %3, i32 0, i32 2
  %5 = getelementptr inbounds nuw %"struct.std::__detail::_Hash_node_base", ptr %4, i32 0, i32 0
  %6 = load ptr, ptr %5, align 8, !tbaa !114
  ret ptr %6
}

; Function Attrs: mustprogress nounwind optsize uwtable
define internal void @_ZNSt10_HashtableINSt7__cxx1112basic_stringIcSt11char_traitsIcESaIcEEESt4pairIKS5_St10shared_ptrIZL28nanobind_init_test_issue_extRN8nanobind7module_EE5ParamEESaISE_ENSt8__detail10_Select1stESt8equal_toIS5_ESt4hashIS5_ENSG_18_Mod_range_hashingENSG_20_Default_ranged_hashENSG_20_Prime_rehash_policyENSG_17_Hashtable_traitsILb1ELb0ELb1EEEE5clearEv(ptr noundef nonnull align 8 dereferenceable(56) %0) #8 align 2 personality ptr @__gxx_personality_v0 {
  %2 = alloca ptr, align 8
  store ptr %0, ptr %2, align 8, !tbaa !90
  %3 = load ptr, ptr %2, align 8
  %4 = call noundef ptr @_ZNKSt10_HashtableINSt7__cxx1112basic_stringIcSt11char_traitsIcESaIcEEESt4pairIKS5_St10shared_ptrIZL28nanobind_init_test_issue_extRN8nanobind7module_EE5ParamEESaISE_ENSt8__detail10_Select1stESt8equal_toIS5_ESt4hashIS5_ENSG_18_Mod_range_hashingENSG_20_Default_ranged_hashENSG_20_Prime_rehash_policyENSG_17_Hashtable_traitsILb1ELb0ELb1EEEE8_M_beginEv(ptr noundef nonnull align 8 dereferenceable(56) %3) #19
  invoke void @_ZNSt8__detail16_Hashtable_allocISaINS_10_Hash_nodeISt4pairIKNSt7__cxx1112basic_stringIcSt11char_traitsIcESaIcEEESt10shared_ptrIZL28nanobind_init_test_issue_extRN8nanobind7module_EE5ParamEELb1EEEEE19_M_deallocate_nodesEPSH_(ptr noundef nonnull align 1 dereferenceable(1) %3, ptr noundef %4) #19
          to label %5 unwind label %14

5:                                                ; preds = %1
  %6 = getelementptr inbounds nuw %"class.std::_Hashtable", ptr %3, i32 0, i32 0
  %7 = load ptr, ptr %6, align 8, !tbaa !92
  %8 = getelementptr inbounds nuw %"class.std::_Hashtable", ptr %3, i32 0, i32 1
  %9 = load i64, ptr %8, align 8, !tbaa !100
  %10 = mul i64 %9, 8
  call void @llvm.memset.p0.i64(ptr align 8 %7, i8 0, i64 %10, i1 false)
  %11 = getelementptr inbounds nuw %"class.std::_Hashtable", ptr %3, i32 0, i32 3
  store i64 0, ptr %11, align 8, !tbaa !101
  %12 = getelementptr inbounds nuw %"class.std::_Hashtable", ptr %3, i32 0, i32 2
  %13 = getelementptr inbounds nuw %"struct.std::__detail::_Hash_node_base", ptr %12, i32 0, i32 0
  store ptr null, ptr %13, align 8, !tbaa !114
  ret void

14:                                               ; preds = %1
  %15 = landingpad { ptr, i32 }
          catch ptr null
  %16 = extractvalue { ptr, i32 } %15, 0
  call void @__clang_call_terminate(ptr %16) #22
  unreachable
}