; Function Attrs: mustprogress nounwind optsize uwtable
define internal fastcc void @_ZNSt10_HashtableINSt7__cxx1112basic_stringIcSt11char_traitsIcESaIcEEESt4pairIKS5_St10shared_ptrIZL28nanobind_init_test_issue_extRN8nanobind7module_EE5ParamEESaISE_ENSt8__detail10_Select1stESt8equal_toIS5_ESt4hashIS5_ENSG_18_Mod_range_hashingENSG_20_Default_ranged_hashENSG_20_Prime_rehash_policyENSG_17_Hashtable_traitsILb1ELb0ELb1EEEE5clearEv(ptr noundef nonnull align 8 captures(none) dereferenceable(56) %0) unnamed_addr #6 align 2 personality ptr @__gxx_personality_v0 {
  %2 = getelementptr inbounds nuw i8, ptr %0, i64 16
  %.val = load ptr, ptr %2, align 8, !tbaa !89
  %.not1.i = icmp eq ptr %.val, null
  br i1 %.not1.i, label %_ZNSt8__detail16_Hashtable_allocISaINS_10_Hash_nodeISt4pairIKNSt7__cxx1112basic_stringIcSt11char_traitsIcESaIcEEESt10shared_ptrIZL28nanobind_init_test_issue_extRN8nanobind7module_EE5ParamEELb1EEEEE19_M_deallocate_nodesEPSH_.exit, label %.lr.ph.i

.lr.ph.i:                                         ; preds = %1, %.lr.ph.i
  %.02.i = phi ptr [ %.0.val.i, %.lr.ph.i ], [ %.val, %1 ]
  %.0.val.i = load ptr, ptr %.02.i, align 8, !tbaa !71
  tail call fastcc void @_ZNSt8__detail16_Hashtable_allocISaINS_10_Hash_nodeISt4pairIKNSt7__cxx1112basic_stringIcSt11char_traitsIcESaIcEEESt10shared_ptrIZL28nanobind_init_test_issue_extRN8nanobind7module_EE5ParamEELb1EEEEE18_M_deallocate_nodeEPSH_(ptr noundef %.02.i) #26
  %.not.i = icmp eq ptr %.0.val.i, null
  br i1 %.not.i, label %_ZNSt8__detail16_Hashtable_allocISaINS_10_Hash_nodeISt4pairIKNSt7__cxx1112basic_stringIcSt11char_traitsIcESaIcEEESt10shared_ptrIZL28nanobind_init_test_issue_extRN8nanobind7module_EE5ParamEELb1EEEEE19_M_deallocate_nodesEPSH_.exit, label %.lr.ph.i, !llvm.loop !102

_ZNSt8__detail16_Hashtable_allocISaINS_10_Hash_nodeISt4pairIKNSt7__cxx1112basic_stringIcSt11char_traitsIcESaIcEEESt10shared_ptrIZL28nanobind_init_test_issue_extRN8nanobind7module_EE5ParamEELb1EEEEE19_M_deallocate_nodesEPSH_.exit: ; preds = %.lr.ph.i, %1
  %3 = load ptr, ptr %0, align 8, !tbaa !78
  %4 = getelementptr inbounds nuw i8, ptr %0, i64 8
  %5 = load i64, ptr %4, align 8, !tbaa !77
  %6 = shl i64 %5, 3
  tail call void @llvm.memset.p0.i64(ptr align 8 %3, i8 0, i64 %6, i1 false)
  tail call void @llvm.memset.p0.i64(ptr noundef nonnull align 8 dereferenceable(16) %2, i8 0, i64 16, i1 false)
  ret void
}